; Function Attrs: nounwind uwtable
define zeroext range(i8 0, 2) i8 @l_Array_anyMUnsafe_any___at_Lean_Linter_suspiciousUnexpanderPatterns___elambda__1___spec__7(ptr noundef readonly captures(none) %0, i64 noundef %1, i64 noundef %2) local_unnamed_addr #0 {
  %.not69 = icmp eq i64 %1, %2
  br i1 %.not69, label %lean_dec.exit._crit_edge, label %.lr.ph

.lr.ph:                                           ; preds = %3
  %4 = getelementptr inbounds nuw i8, ptr %0, i64 24
  br label %5

5:                                                ; preds = %.lr.ph, %lean_dec.exit46
  %.03570 = phi i64 [ %1, %.lr.ph ], [ %.439, %lean_dec.exit46 ]
  %6 = getelementptr inbounds nuw [0 x ptr], ptr %4, i64 0, i64 %.03570
  %7 = load ptr, ptr %6, align 8, !tbaa !4
  %8 = ptrtoint ptr %7 to i64
  %9 = and i64 %8, 1
  %.not.i53.not = icmp eq i64 %9, 0
  br i1 %.not.i53.not, label %10, label %lean_inc.exit.thread

10:                                               ; preds = %5
  %.val.i.i = load i32, ptr %7, align 4, !tbaa !8
  %11 = icmp sgt i32 %.val.i.i, 0
  br i1 %11, label %12, label %14, !prof !11

12:                                               ; preds = %10
  %13 = add nuw i32 %.val.i.i, 1
  store i32 %13, ptr %7, align 4, !tbaa !8
  br label %17

14:                                               ; preds = %10
  %.not.i.i = icmp eq i32 %.val.i.i, 0
  br i1 %.not.i.i, label %.thread57, label %16

.thread57:                                        ; preds = %14
  %15 = load ptr, ptr @l_Array_anyMUnsafe_any___at_Lean_Linter_suspiciousUnexpanderPatterns___elambda__1___spec__7___closed__3, align 8, !tbaa !4
  br label %lean_inc.exit

16:                                               ; preds = %14
  tail call void @lean_inc_ref_cold(ptr noundef nonnull %7) #5
  %.val.i.pr = load i32, ptr %7, align 4, !tbaa !8
  br label %17

17:                                               ; preds = %12, %16
  %.val.i = phi i32 [ %13, %12 ], [ %.val.i.pr, %16 ]
  %18 = load ptr, ptr @l_Array_anyMUnsafe_any___at_Lean_Linter_suspiciousUnexpanderPatterns___elambda__1___spec__7___closed__3, align 8, !tbaa !4
  %19 = icmp sgt i32 %.val.i, 0
  br i1 %19, label %20, label %22, !prof !13

20:                                               ; preds = %17
  %21 = add nuw i32 %.val.i, 1
  store i32 %21, ptr %7, align 4, !tbaa !8
  br label %lean_inc.exit

22:                                               ; preds = %17
  %.not.i54 = icmp eq i32 %.val.i, 0
  br i1 %.not.i54, label %lean_inc.exit, label %23

23:                                               ; preds = %22
  tail call void @lean_inc_ref_cold(ptr noundef nonnull %7) #5
  br label %lean_inc.exit

lean_inc.exit:                                    ; preds = %23, %22, %20, %.thread57
  %24 = phi ptr [ %18, %20 ], [ %18, %22 ], [ %18, %23 ], [ %15, %.thread57 ]
  %25 = tail call zeroext i8 @l_Lean_Syntax_isOfKind(ptr noundef nonnull %7, ptr noundef %24) #5
  %26 = icmp eq i8 %25, 0
  br i1 %26, label %30, label %37

lean_inc.exit.thread:                             ; preds = %5
  %27 = load ptr, ptr @l_Array_anyMUnsafe_any___at_Lean_Linter_suspiciousUnexpanderPatterns___elambda__1___spec__7___closed__3, align 8, !tbaa !4
  %28 = tail call zeroext i8 @l_Lean_Syntax_isOfKind(ptr noundef %7, ptr noundef %27) #5
  %29 = icmp eq i8 %28, 0
  br i1 %29, label %lean_dec.exit46, label %37

30:                                               ; preds = %lean_inc.exit
  %31 = load i32, ptr %7, align 4, !tbaa !8
  %32 = icmp sgt i32 %31, 1
  br i1 %32, label %33, label %35, !prof !11

33:                                               ; preds = %30
  %34 = add nsw i32 %31, -1
  store i32 %34, ptr %7, align 4, !tbaa !8
  br label %lean_dec.exit46

35:                                               ; preds = %30
  %.not.i = icmp eq i32 %31, 0
  br i1 %.not.i, label %lean_dec.exit46, label %36

36:                                               ; preds = %35
  tail call void @lean_dec_ref_cold(ptr noundef nonnull %7) #5
  br label %lean_dec.exit46

37:                                               ; preds = %lean_inc.exit.thread, %lean_inc.exit
  %38 = tail call ptr @l_Lean_Syntax_getArg(ptr noundef %7, ptr noundef nonnull inttoptr (i64 1 to ptr)) #5
  %39 = load ptr, ptr @l_Array_anyMUnsafe_any___at_Lean_Linter_suspiciousUnexpanderPatterns___elambda__1___spec__7___closed__5, align 8, !tbaa !4
  %40 = tail call zeroext i8 @l_Lean_Syntax_matchesIdent(ptr noundef %38, ptr noundef %39) #5
  %41 = ptrtoint ptr %38 to i64
  %42 = and i64 %41, 1
  %.not68 = icmp eq i64 %42, 0
  br i1 %.not68, label %43, label %lean_dec.exit45

43:                                               ; preds = %37
  %44 = load i32, ptr %38, align 4, !tbaa !8
  %45 = icmp sgt i32 %44, 1
  br i1 %45, label %46, label %48, !prof !11

46:                                               ; preds = %43
  %47 = add nsw i32 %44, -1
  store i32 %47, ptr %38, align 4, !tbaa !8
  br label %lean_dec.exit45

48:                                               ; preds = %43
  %.not.i47 = icmp eq i32 %44, 0
  br i1 %.not.i47, label %lean_dec.exit45, label %49

49:                                               ; preds = %48
  tail call void @lean_dec_ref_cold(ptr noundef nonnull %38) #5
  br label %lean_dec.exit45

lean_dec.exit45:                                  ; preds = %49, %48, %46, %37
  %50 = icmp eq i8 %40, 0
  br i1 %50, label %51, label %59

51:                                               ; preds = %lean_dec.exit45
  br i1 %.not.i53.not, label %52, label %lean_dec.exit46

52:                                               ; preds = %51
  %53 = load i32, ptr %7, align 4, !tbaa !8
  %54 = icmp sgt i32 %53, 1
  br i1 %54, label %55, label %57, !prof !11

55:                                               ; preds = %52
  %56 = add nsw i32 %53, -1
  store i32 %56, ptr %7, align 4, !tbaa !8
  br label %lean_dec.exit46

57:                                               ; preds = %52
  %.not.i49 = icmp eq i32 %53, 0
  br i1 %.not.i49, label %lean_dec.exit46, label %58

58:                                               ; preds = %57
  tail call void @lean_dec_ref_cold(ptr noundef nonnull %7) #5
  br label %lean_dec.exit46

59:                                               ; preds = %lean_dec.exit45
  %60 = tail call ptr @l_Lean_Syntax_getArg(ptr noundef %7, ptr noundef nonnull inttoptr (i64 3 to ptr)) #5
  br i1 %.not.i53.not, label %61, label %lean_dec.exit

61:                                               ; preds = %59
  %62 = load i32, ptr %7, align 4, !tbaa !8
  %63 = icmp sgt i32 %62, 1
  br i1 %63, label %64, label %66, !prof !11

64:                                               ; preds = %61
  %65 = add nsw i32 %62, -1
  store i32 %65, ptr %7, align 4, !tbaa !8
  br label %lean_dec.exit

66:                                               ; preds = %61
  %.not.i51 = icmp eq i32 %62, 0
  br i1 %.not.i51, label %lean_dec.exit, label %67

67:                                               ; preds = %66
  tail call void @lean_dec_ref_cold(ptr noundef nonnull %7) #5
  br label %lean_dec.exit

lean_dec.exit:                                    ; preds = %67, %66, %64, %59
  %68 = tail call zeroext i8 @l_Lean_Syntax_matchesNull(ptr noundef %60, ptr noundef nonnull inttoptr (i64 3 to ptr)) #5
  %69 = icmp eq i8 %68, 0
  br i1 %69, label %lean_dec.exit46, label %lean_dec.exit._crit_edge

lean_dec.exit46:                                  ; preds = %lean_dec.exit, %51, %55, %57, %58, %33, %35, %36, %lean_inc.exit.thread
  %.439 = add i64 %.03570, 1
  %.not = icmp eq i64 %.439, %2
  br i1 %.not, label %lean_dec.exit._crit_edge, label %5

lean_dec.exit._crit_edge:                         ; preds = %lean_dec.exit46, %lean_dec.exit, %3
  %.4.ph = phi i8 [ 0, %3 ], [ 1, %lean_dec.exit ], [ 0, %lean_dec.exit46 ]
  ret i8 %.4.ph
}